; ModuleID = '55/1118.c'
source_filename = "55/1118.c"
target datalayout = "e-m:e-p270:32:32-p271:32:32-p272:64:64-i64:64-f80:128-n8:16:32:64-S128"
target triple = "x86_64-pc-linux-gnu"

@.str = private unnamed_addr constant [9 x i8] c"%d %s %d\00", align 1
@.str.1 = private unnamed_addr constant [3 x i8] c"%d\00", align 1
@.str.2 = private unnamed_addr constant [3 x i8] c"%s\00", align 1

; Function Attrs: noinline nounwind uwtable
define dso_local i32 @main() #0 {
  %1 = alloca i32, align 4
  %2 = alloca i32, align 4
  %3 = alloca i32, align 4
  %4 = alloca i32, align 4
  %5 = alloca i32, align 4
  %6 = alloca i32, align 4
  %7 = alloca [65535 x i32], align 16
  %8 = alloca i64, align 8
  %9 = alloca i64, align 8
  %10 = alloca [65535 x i8], align 16
  store i32 0, i32* %1, align 4
  store i64 0, i64* %8, align 8
  store i64 1, i64* %9, align 8
  %11 = getelementptr inbounds [65535 x i8], [65535 x i8]* %10, i64 0, i64 0
  %12 = call i32 (i8*, ...) @__isoc99_scanf(i8* getelementptr inbounds ([9 x i8], [9 x i8]* @.str, i64 0, i64 0), i32* %2, i8* %11, i32* %3)
  %13 = getelementptr inbounds [65535 x i8], [65535 x i8]* %10, i64 0, i64 0
  %14 = call i64 @strlen(i8* %13) #4
  %15 = trunc i64 %14 to i32
  store i32 %15, i32* %4, align 4
  store i32 0, i32* %5, align 4
  br label %16

16:                                               ; preds = %95, %0
  %17 = load i32, i32* %5, align 4
  %18 = load i32, i32* %4, align 4
  %19 = icmp slt i32 %17, %18
  br i1 %19, label %20, label %98

20:                                               ; preds = %16
  %21 = load i32, i32* %5, align 4
  %22 = sext i32 %21 to i64
  %23 = getelementptr inbounds [65535 x i8], [65535 x i8]* %10, i64 0, i64 %22
  %24 = load i8, i8* %23, align 1
  %25 = sext i8 %24 to i32
  %26 = icmp sle i32 %25, 57
  br i1 %26, label %27, label %44

27:                                               ; preds = %20
  %28 = load i32, i32* %5, align 4
  %29 = sext i32 %28 to i64
  %30 = getelementptr inbounds [65535 x i8], [65535 x i8]* %10, i64 0, i64 %29
  %31 = load i8, i8* %30, align 1
  %32 = sext i8 %31 to i32
  %33 = icmp sge i32 %32, 48
  br i1 %33, label %34, label %44

34:                                               ; preds = %27
  %35 = load i32, i32* %5, align 4
  %36 = sext i32 %35 to i64
  %37 = getelementptr inbounds [65535 x i8], [65535 x i8]* %10, i64 0, i64 %36
  %38 = load i8, i8* %37, align 1
  %39 = sext i8 %38 to i32
  %40 = sub nsw i32 %39, 48
  %41 = load i32, i32* %5, align 4
  %42 = sext i32 %41 to i64
  %43 = getelementptr inbounds [65535 x i32], [65535 x i32]* %7, i64 0, i64 %42
  store i32 %40, i32* %43, align 4
  br label %44

44:                                               ; preds = %34, %27, %20
  %45 = load i32, i32* %5, align 4
  %46 = sext i32 %45 to i64
  %47 = getelementptr inbounds [65535 x i8], [65535 x i8]* %10, i64 0, i64 %46
  %48 = load i8, i8* %47, align 1
  %49 = sext i8 %48 to i32
  %50 = icmp sle i32 %49, 122
  br i1 %50, label %51, label %69

51:                                               ; preds = %44
  %52 = load i32, i32* %5, align 4
  %53 = sext i32 %52 to i64
  %54 = getelementptr inbounds [65535 x i8], [65535 x i8]* %10, i64 0, i64 %53
  %55 = load i8, i8* %54, align 1
  %56 = sext i8 %55 to i32
  %57 = icmp sge i32 %56, 97
  br i1 %57, label %58, label %69

58:                                               ; preds = %51
  %59 = load i32, i32* %5, align 4
  %60 = sext i32 %59 to i64
  %61 = getelementptr inbounds [65535 x i8], [65535 x i8]* %10, i64 0, i64 %60
  %62 = load i8, i8* %61, align 1
  %63 = sext i8 %62 to i32
  %64 = sub nsw i32 %63, 97
  %65 = add nsw i32 %64, 10
  %66 = load i32, i32* %5, align 4
  %67 = sext i32 %66 to i64
  %68 = getelementptr inbounds [65535 x i32], [65535 x i32]* %7, i64 0, i64 %67
  store i32 %65, i32* %68, align 4
  br label %69

69:                                               ; preds = %58, %51, %44
  %70 = load i32, i32* %5, align 4
  %71 = sext i32 %70 to i64
  %72 = getelementptr inbounds [65535 x i8], [65535 x i8]* %10, i64 0, i64 %71
  %73 = load i8, i8* %72, align 1
  %74 = sext i8 %73 to i32
  %75 = icmp sle i32 %74, 90
  br i1 %75, label %76, label %94

76:                                               ; preds = %69
  %77 = load i32, i32* %5, align 4
  %78 = sext i32 %77 to i64
  %79 = getelementptr inbounds [65535 x i8], [65535 x i8]* %10, i64 0, i64 %78
  %80 = load i8, i8* %79, align 1
  %81 = sext i8 %80 to i32
  %82 = icmp sge i32 %81, 65
  br i1 %82, label %83, label %94

83:                                               ; preds = %76
  %84 = load i32, i32* %5, align 4
  %85 = sext i32 %84 to i64
  %86 = getelementptr inbounds [65535 x i8], [65535 x i8]* %10, i64 0, i64 %85
  %87 = load i8, i8* %86, align 1
  %88 = sext i8 %87 to i32
  %89 = sub nsw i32 %88, 65
  %90 = add nsw i32 %89, 10
  %91 = load i32, i32* %5, align 4
  %92 = sext i32 %91 to i64
  %93 = getelementptr inbounds [65535 x i32], [65535 x i32]* %7, i64 0, i64 %92
  store i32 %90, i32* %93, align 4
  br label %94

94:                                               ; preds = %83, %76, %69
  br label %95

95:                                               ; preds = %94
  %96 = load i32, i32* %5, align 4
  %97 = add nsw i32 %96, 1
  store i32 %97, i32* %5, align 4
  br label %16

98:                                               ; preds = %16
  store i32 0, i32* %5, align 4
  br label %99

99:                                               ; preds = %122, %98
  %100 = load i32, i32* %5, align 4
  %101 = load i32, i32* %4, align 4
  %102 = icmp slt i32 %100, %101
  br i1 %102, label %103, label %125

103:                                              ; preds = %99
  %104 = load i64, i64* %8, align 8
  %105 = sitofp i64 %104 to double
  %106 = load i32, i32* %5, align 4
  %107 = sext i32 %106 to i64
  %108 = getelementptr inbounds [65535 x i32], [65535 x i32]* %7, i64 0, i64 %107
  %109 = load i32, i32* %108, align 4
  %110 = sitofp i32 %109 to double
  %111 = load i32, i32* %2, align 4
  %112 = sitofp i32 %111 to double
  %113 = load i32, i32* %4, align 4
  %114 = load i32, i32* %5, align 4
  %115 = sub nsw i32 %113, %114
  %116 = sub nsw i32 %115, 1
  %117 = sitofp i32 %116 to double
  %118 = call double @pow(double %112, double %117) #5
  %119 = fmul double %110, %118
  %120 = fadd double %105, %119
  %121 = fptosi double %120 to i64
  store i64 %121, i64* %8, align 8
  br label %122

122:                                              ; preds = %103
  %123 = load i32, i32* %5, align 4
  %124 = add nsw i32 %123, 1
  store i32 %124, i32* %5, align 4
  br label %99

125:                                              ; preds = %99
  %126 = load i64, i64* %8, align 8
  %127 = icmp eq i64 %126, 0
  br i1 %127, label %128, label %131

128:                                              ; preds = %125
  %129 = load i64, i64* %8, align 8
  %130 = call i32 (i8*, ...) @printf(i8* getelementptr inbounds ([3 x i8], [3 x i8]* @.str.1, i64 0, i64 0), i64 %129)
  br label %131

131:                                              ; preds = %128, %125
  store i32 0, i32* %6, align 4
  br label %132

132:                                              ; preds = %135, %131
  %133 = load i64, i64* %8, align 8
  %134 = icmp ne i64 %133, 0
  br i1 %134, label %135, label %150

135:                                              ; preds = %132
  %136 = load i64, i64* %8, align 8
  %137 = load i32, i32* %3, align 4
  %138 = sext i32 %137 to i64
  %139 = srem i64 %136, %138
  %140 = trunc i64 %139 to i32
  %141 = load i32, i32* %6, align 4
  %142 = sext i32 %141 to i64
  %143 = getelementptr inbounds [65535 x i32], [65535 x i32]* %7, i64 0, i64 %142
  store i32 %140, i32* %143, align 4
  %144 = load i64, i64* %8, align 8
  %145 = load i32, i32* %3, align 4
  %146 = sext i32 %145 to i64
  %147 = sdiv i64 %144, %146
  store i64 %147, i64* %8, align 8
  %148 = load i32, i32* %6, align 4
  %149 = add nsw i32 %148, 1
  store i32 %149, i32* %6, align 4
  br label %132

150:                                              ; preds = %132
  store i32 0, i32* %5, align 4
  br label %151

151:                                              ; preds = %189, %150
  %152 = load i32, i32* %5, align 4
  %153 = load i32, i32* %6, align 4
  %154 = icmp slt i32 %152, %153
  br i1 %154, label %155, label %192

155:                                              ; preds = %151
  %156 = load i32, i32* %5, align 4
  %157 = sext i32 %156 to i64
  %158 = getelementptr inbounds [65535 x i32], [65535 x i32]* %7, i64 0, i64 %157
  %159 = load i32, i32* %158, align 4
  %160 = icmp sle i32 %159, 9
  br i1 %160, label %161, label %174

161:                                              ; preds = %155
  %162 = load i32, i32* %5, align 4
  %163 = sext i32 %162 to i64
  %164 = getelementptr inbounds [65535 x i32], [65535 x i32]* %7, i64 0, i64 %163
  %165 = load i32, i32* %164, align 4
  %166 = add nsw i32 48, %165
  %167 = trunc i32 %166 to i8
  %168 = load i32, i32* %6, align 4
  %169 = sub nsw i32 %168, 1
  %170 = load i32, i32* %5, align 4
  %171 = sub nsw i32 %169, %170
  %172 = sext i32 %171 to i64
  %173 = getelementptr inbounds [65535 x i8], [65535 x i8]* %10, i64 0, i64 %172
  store i8 %167, i8* %173, align 1
  br label %188

174:                                              ; preds = %155
  %175 = load i32, i32* %5, align 4
  %176 = sext i32 %175 to i64
  %177 = getelementptr inbounds [65535 x i32], [65535 x i32]* %7, i64 0, i64 %176
  %178 = load i32, i32* %177, align 4
  %179 = add nsw i32 65, %178
  %180 = sub nsw i32 %179, 10
  %181 = trunc i32 %180 to i8
  %182 = load i32, i32* %6, align 4
  %183 = sub nsw i32 %182, 1
  %184 = load i32, i32* %5, align 4
  %185 = sub nsw i32 %183, %184
  %186 = sext i32 %185 to i64
  %187 = getelementptr inbounds [65535 x i8], [65535 x i8]* %10, i64 0, i64 %186
  store i8 %181, i8* %187, align 1
  br label %188

188:                                              ; preds = %174, %161
  br label %189

189:                                              ; preds = %188
  %190 = load i32, i32* %5, align 4
  %191 = add nsw i32 %190, 1
  store i32 %191, i32* %5, align 4
  br label %151

192:                                              ; preds = %151
  %193 = load i32, i32* %6, align 4
  %194 = sext i32 %193 to i64
  %195 = getelementptr inbounds [65535 x i8], [65535 x i8]* %10, i64 0, i64 %194
  store i8 0, i8* %195, align 1
  %196 = getelementptr inbounds [65535 x i8], [65535 x i8]* %10, i64 0, i64 0
  %197 = call i32 (i8*, ...) @printf(i8* getelementptr inbounds ([3 x i8], [3 x i8]* @.str.2, i64 0, i64 0), i8* %196)
  %198 = call i32 @getchar()
  %199 = call i32 @getchar()
  %200 = load i32, i32* %1, align 4
  ret i32 %200
}

declare dso_local i32 @__isoc99_scanf(i8*, ...) #1

; Function Attrs: nounwind readonly
declare dso_local i64 @strlen(i8*) #2

; Function Attrs: nounwind
declare dso_local double @pow(double, double) #3

declare dso_local i32 @printf(i8*, ...) #1

declare dso_local i32 @getchar() #1


!llvm.module.flags = !{!0}
!llvm.ident = !{!1}

!0 = !{i32 1, !"wchar_size", i32 4}
!1 = !{!"clang version 10.0.0-4ubuntu1 "}
